target datalayout = "e-m:e-p270:32:32-p271:32:32-p272:64:64-i64:64-i128:128-f80:128-n8:16:32:64-S128"
target triple = "x86_64-pc-linux-gnu"

%"class.std::__shared_count" = type { ptr }
%"class.std::shared_ptr.9" = type { %"class.std::__shared_ptr.10" }
%"class.std::__shared_ptr.10" = type { ptr, %"class.std::__shared_count" }
%"class.cv::AVIWriteContainer" = type { %"class.std::shared_ptr.9", i32, i32, i32, i32, i64, %"class.std::vector.12", %"class.std::vector.12", %"class.std::vector.12", %"class.std::vector.12" }
%"class.std::vector.12" = type { %"struct.std::_Vector_base.13" }
%"struct.std::_Vector_base.13" = type { %"struct.std::_Vector_base<unsigned long, std::allocator<unsigned long>>::_Vector_impl" }
%"struct.std::_Vector_base<unsigned long, std::allocator<unsigned long>>::_Vector_impl" = type { %"struct.std::_Vector_base<unsigned long, std::allocator<unsigned long>>::_Vector_impl_data" }
%"struct.std::_Vector_base<unsigned long, std::allocator<unsigned long>>::_Vector_impl_data" = type { ptr, ptr, ptr }
%"class.cv::Size_" = type { i32, i32 }

; Function Attrs: mustprogress nounwind uwtable
define linkonce_odr hidden noundef ptr @_ZNKSt12__shared_ptrIN2cv9BitStreamELN9__gnu_cxx12_Lock_policyE2EE3getEv(ptr noundef nonnull align 8 dereferenceable(16) %0) #7 comdat align 2 {
  %2 = alloca ptr, align 8
  store ptr %0, ptr %2, align 8, !tbaa !197
  %3 = load ptr, ptr %2, align 8
  %4 = getelementptr inbounds nuw %"class.std::__shared_ptr.10", ptr %3, i32 0, i32 0
  %5 = load ptr, ptr %4, align 8, !tbaa !373
  ret ptr %5
}

; Function Attrs: mustprogress nounwind uwtable
define linkonce_odr hidden noundef ptr @_ZNKSt19__shared_ptr_accessIN2cv9BitStreamELN9__gnu_cxx12_Lock_policyE2ELb0ELb0EE6_M_getEv(ptr noundef nonnull align 1 dereferenceable(1) %0) #7 comdat align 2 {
  %2 = alloca ptr, align 8
  store ptr %0, ptr %2, align 8, !tbaa !193
  %3 = load ptr, ptr %2, align 8
  %4 = call noundef ptr @_ZNKSt12__shared_ptrIN2cv9BitStreamELN9__gnu_cxx12_Lock_policyE2EE3getEv(ptr noundef nonnull align 8 dereferenceable(16) %3) #3
  ret ptr %4
}

; Function Attrs: alwaysinline mustprogress nounwind uwtable
define internal noundef i32 @_ZL14_mm_cvtsd_si32Dv2_d(<2 x double> noundef %0) #19 {
  %2 = alloca <2 x double>, align 16
  store <2 x double> %0, ptr %2, align 16, !tbaa !7
  %3 = load <2 x double>, ptr %2, align 16, !tbaa !7
  %4 = call i32 @llvm.x86.sse2.cvtsd2si(<2 x double> %3)
  ret i32 %4
}

; Function Attrs: alwaysinline mustprogress nounwind uwtable
define internal noundef <2 x double> @_ZL10_mm_set_sdd(double noundef %0) #19 {
  %2 = alloca double, align 8
  %3 = alloca <2 x double>, align 16
  store double %0, ptr %2, align 8, !tbaa !199
  %4 = load double, ptr %2, align 8, !tbaa !199
  %5 = insertelement <2 x double> poison, double %4, i32 0
  %6 = insertelement <2 x double> %5, double 0.000000e+00, i32 1
  store <2 x double> %6, ptr %3, align 16, !tbaa !7
  %7 = load <2 x double>, ptr %3, align 16, !tbaa !7
  ret <2 x double> %7
}

; Function Attrs: mustprogress nounwind uwtable
define linkonce_odr hidden noundef ptr @_ZNKSt19__shared_ptr_accessIN2cv9BitStreamELN9__gnu_cxx12_Lock_policyE2ELb0ELb0EEptEv(ptr noundef nonnull align 1 dereferenceable(1) %0) #7 comdat align 2 {
  %2 = alloca ptr, align 8
  store ptr %0, ptr %2, align 8, !tbaa !193
  %3 = load ptr, ptr %2, align 8
  %4 = call noundef ptr @_ZNKSt19__shared_ptr_accessIN2cv9BitStreamELN9__gnu_cxx12_Lock_policyE2ELb0ELb0EE6_M_getEv(ptr noundef nonnull align 1 dereferenceable(1) %3) #3
  ret ptr %4
}

; Function Attrs: inlinehint mustprogress uwtable
define internal noundef i32 @_ZL7cvRoundd(double noundef %0) #12 {
  %2 = alloca double, align 8
  %3 = alloca <2 x double>, align 16
  store double %0, ptr %2, align 8, !tbaa !199
  call void @llvm.lifetime.start.p0(i64 16, ptr %3) #3
  %4 = load double, ptr %2, align 8, !tbaa !199
  %5 = call noundef <2 x double> @_ZL10_mm_set_sdd(double noundef %4)
  store <2 x double> %5, ptr %3, align 16, !tbaa !7
  %6 = load <2 x double>, ptr %3, align 16, !tbaa !7
  %7 = call noundef i32 @_ZL14_mm_cvtsd_si32Dv2_d(<2 x double> noundef %6)
  call void @llvm.lifetime.end.p0(i64 16, ptr %3) #3
  ret i32 %7
}

; Function Attrs: mustprogress uwtable
define noundef zeroext i1 @_ZN2cv17AVIWriteContainer13initContainerERKNSt7__cxx1112basic_stringIcSt11char_traitsIcESaIcEEEdNS_5Size_IiEEb(ptr noundef nonnull align 8 dereferenceable(136) %0, ptr noundef nonnull align 8 dereferenceable(32) %1, double noundef %2, i64 %3, i1 noundef zeroext %4) #6 align 2 {
  %6 = alloca %"class.cv::Size_", align 4
  %7 = alloca ptr, align 8
  %8 = alloca ptr, align 8
  %9 = alloca double, align 8
  %10 = alloca i8, align 1
  %11 = alloca i8, align 1
  store i64 %3, ptr %6, align 4
  store ptr %0, ptr %7, align 8, !tbaa !175
  store ptr %1, ptr %8, align 8, !tbaa !33
  store double %2, ptr %9, align 8, !tbaa !199
  %12 = zext i1 %4 to i8
  store i8 %12, ptr %10, align 1, !tbaa !40
  %13 = load ptr, ptr %7, align 8
  %14 = load double, ptr %9, align 8, !tbaa !199
  %15 = call noundef i32 @_ZL7cvRoundd(double noundef %14)
  %16 = getelementptr inbounds nuw %"class.cv::AVIWriteContainer", ptr %13, i32 0, i32 1
  store i32 %15, ptr %16, align 8, !tbaa !177
  %17 = getelementptr inbounds nuw %"class.cv::Size_", ptr %6, i32 0, i32 0
  %18 = load i32, ptr %17, align 4, !tbaa !200
  %19 = getelementptr inbounds nuw %"class.cv::AVIWriteContainer", ptr %13, i32 0, i32 2
  store i32 %18, ptr %19, align 4, !tbaa !186
  %20 = getelementptr inbounds nuw %"class.cv::Size_", ptr %6, i32 0, i32 1
  %21 = load i32, ptr %20, align 4, !tbaa !202
  %22 = getelementptr inbounds nuw %"class.cv::AVIWriteContainer", ptr %13, i32 0, i32 3
  store i32 %21, ptr %22, align 8, !tbaa !185
  %23 = load i8, ptr %10, align 1, !tbaa !40, !range !37, !noundef !38
  %24 = trunc i8 %23 to i1
  %25 = select i1 %24, i32 3, i32 1
  %26 = getelementptr inbounds nuw %"class.cv::AVIWriteContainer", ptr %13, i32 0, i32 4
  store i32 %25, ptr %26, align 4, !tbaa !187
  %27 = getelementptr inbounds nuw %"class.cv::AVIWriteContainer", ptr %13, i32 0, i32 5
  store i64 0, ptr %27, align 8, !tbaa !188
  call void @llvm.lifetime.start.p0(i64 1, ptr %11) #3
  %28 = getelementptr inbounds nuw %"class.cv::AVIWriteContainer", ptr %13, i32 0, i32 0
  %29 = call noundef ptr @_ZNKSt19__shared_ptr_accessIN2cv9BitStreamELN9__gnu_cxx12_Lock_policyE2ELb0ELb0EEptEv(ptr noundef nonnull align 1 dereferenceable(1) %28) #3
  %30 = load ptr, ptr %8, align 8, !tbaa !33
  %31 = call noundef zeroext i1 @_ZN2cv9BitStream4openERKNSt7__cxx1112basic_stringIcSt11char_traitsIcESaIcEEE(ptr noundef nonnull align 8 dereferenceable(569) %29, ptr noundef nonnull align 8 dereferenceable(32) %30)
  %32 = zext i1 %31 to i8
  store i8 %32, ptr %11, align 1, !tbaa !40
  %33 = load i8, ptr %11, align 1, !tbaa !40, !range !37, !noundef !38
  %34 = trunc i8 %33 to i1
  call void @llvm.lifetime.end.p0(i64 1, ptr %11) #3
  ret i1 %34
}