; Function Attrs: mustprogress uwtable
define noundef zeroext i1 @_ZN2cv17AVIWriteContainer13initContainerERKNSt7__cxx1112basic_stringIcSt11char_traitsIcESaIcEEEdNS_5Size_IiEEb(ptr noundef nonnull align 8 captures(none) dereferenceable(136) initializes((16, 40)) %0, ptr noundef nonnull readonly align 8 captures(none) dereferenceable(32) %1, double noundef %2, i64 %3, i1 noundef zeroext %4) local_unnamed_addr #14 align 2 {
  %.sroa.0.0.extract.trunc = trunc i64 %3 to i32
  %.sroa.2.0.extract.shift = lshr i64 %3, 32
  %.sroa.2.0.extract.trunc = trunc nuw i64 %.sroa.2.0.extract.shift to i32
  %6 = insertelement <2 x double> poison, double %2, i64 0
  %7 = tail call noundef i32 @llvm.x86.sse2.cvtsd2si(<2 x double> %6)
  %8 = getelementptr inbounds nuw i8, ptr %0, i64 16
  store i32 %7, ptr %8, align 8, !tbaa !160
  %9 = getelementptr inbounds nuw i8, ptr %0, i64 20
  store i32 %.sroa.0.0.extract.trunc, ptr %9, align 4, !tbaa !166
  %10 = getelementptr inbounds nuw i8, ptr %0, i64 24
  store i32 %.sroa.2.0.extract.trunc, ptr %10, align 8, !tbaa !167
  %11 = select i1 %4, i32 3, i32 1
  %12 = getelementptr inbounds nuw i8, ptr %0, i64 28
  store i32 %11, ptr %12, align 4, !tbaa !168
  %13 = getelementptr inbounds nuw i8, ptr %0, i64 32
  store i64 0, ptr %13, align 8, !tbaa !169
  %14 = load ptr, ptr %0, align 8, !tbaa !153
  %15 = tail call noundef zeroext i1 @_ZN2cv9BitStream4openERKNSt7__cxx1112basic_stringIcSt11char_traitsIcESaIcEEE(ptr noundef nonnull align 8 dereferenceable(569) %14, ptr noundef nonnull align 8 dereferenceable(32) %1)
  ret i1 %15
}